; Function Attrs: mustprogress uwtable
define dso_local void @_ZNK8DfgGraph26dumpDotAllVarConesPrefixedERKNSt7__cxx1112basic_stringIcSt11char_traitsIcESaIcEEE(ptr noundef nonnull align 8 dereferenceable(104) %0, ptr noundef nonnull align 8 dereferenceable(32) %1) #3 align 2 personality ptr @__gxx_personality_v0 {
  %3 = alloca %"class.std::__cxx11::basic_string", align 8
  %4 = alloca %"class.std::__cxx11::basic_string", align 8
  %5 = alloca %"class.std::__cxx11::basic_string", align 8
  %6 = alloca %"class.std::function.10", align 8
  %7 = tail call noundef zeroext i1 @_ZNKSt7__cxx1112basic_stringIcSt11char_traitsIcESaIcEE5emptyEv(ptr noundef nonnull align 8 dereferenceable(32) %1) #28
  %8 = getelementptr inbounds i8, ptr %0, i64 72
  br i1 %7, label %9, label %13

9:                                                ; preds = %2
  call void @_ZNSt7__cxx1112basic_stringIcSt11char_traitsIcESaIcEEC1ERKS4_(ptr noundef nonnull align 8 dereferenceable(32) %3, ptr noundef nonnull align 8 dereferenceable(32) %8)
  %10 = invoke noundef nonnull align 8 dereferenceable(32) ptr @_ZNSt7__cxx1112basic_stringIcSt11char_traitsIcESaIcEE6appendEPKc(ptr noundef nonnull align 8 dereferenceable(32) %3, ptr noundef nonnull @.str.8)
          to label %.critedge unwind label %11

common.resume:                                    ; preds = %39, %36, %34, %32, %15, %11
  %.sink = phi ptr [ %5, %15 ], [ %3, %11 ], [ %5, %32 ], [ %5, %34 ], [ %3, %36 ], [ %3, %39 ]
  %common.resume.op = phi { ptr, i32 } [ %16, %15 ], [ %12, %11 ], [ %33, %32 ], [ %35, %34 ], [ %37, %36 ], [ %37, %39 ]
  call void @_ZNSt7__cxx1112basic_stringIcSt11char_traitsIcESaIcEED1Ev(ptr noundef nonnull align 8 dereferenceable(32) %.sink) #28
  resume { ptr, i32 } %common.resume.op

11:                                               ; preds = %9
  %12 = landingpad { ptr, i32 }
          cleanup
  br label %common.resume

13:                                               ; preds = %2
  call void @_ZNSt7__cxx1112basic_stringIcSt11char_traitsIcESaIcEEC1ERKS4_(ptr noundef nonnull align 8 dereferenceable(32) %5, ptr noundef nonnull align 8 dereferenceable(32) %8)
  %14 = invoke noundef nonnull align 8 dereferenceable(32) ptr @_ZNSt7__cxx1112basic_stringIcSt11char_traitsIcESaIcEE6appendEPKc(ptr noundef nonnull align 8 dereferenceable(32) %5, ptr noundef nonnull @.str.2)
          to label %_ZStplIcSt11char_traitsIcESaIcEENSt7__cxx1112basic_stringIT_T0_T1_EERKS8_PKS5_.exit15 unwind label %15

15:                                               ; preds = %13
  %16 = landingpad { ptr, i32 }
          cleanup
  br label %common.resume

_ZStplIcSt11char_traitsIcESaIcEENSt7__cxx1112basic_stringIT_T0_T1_EERKS8_PKS5_.exit15: ; preds = %13
  %17 = invoke noundef nonnull align 8 dereferenceable(32) ptr @_ZNSt7__cxx1112basic_stringIcSt11char_traitsIcESaIcEE6appendERKS4_(ptr noundef nonnull align 8 dereferenceable(32) %5, ptr noundef nonnull align 8 dereferenceable(32) %1)
          to label %18 unwind label %32

18:                                               ; preds = %_ZStplIcSt11char_traitsIcESaIcEENSt7__cxx1112basic_stringIT_T0_T1_EERKS8_PKS5_.exit15
  call void @_ZNSt7__cxx1112basic_stringIcSt11char_traitsIcESaIcEEC1EOS4_(ptr noundef nonnull align 8 dereferenceable(32) %4, ptr noundef nonnull align 8 dereferenceable(32) %17) #28
  %19 = invoke noundef nonnull align 8 dereferenceable(32) ptr @_ZNSt7__cxx1112basic_stringIcSt11char_traitsIcESaIcEE6appendEPKc(ptr noundef nonnull align 8 dereferenceable(32) %4, ptr noundef nonnull @.str.8)
          to label %20 unwind label %34

20:                                               ; preds = %18
  call void @_ZNSt7__cxx1112basic_stringIcSt11char_traitsIcESaIcEEC1EOS4_(ptr noundef nonnull align 8 dereferenceable(32) %3, ptr noundef nonnull align 8 dereferenceable(32) %19) #28
  call void @_ZNSt7__cxx1112basic_stringIcSt11char_traitsIcESaIcEED1Ev(ptr noundef nonnull align 8 dereferenceable(32) %4) #28
  call void @_ZNSt7__cxx1112basic_stringIcSt11char_traitsIcESaIcEED1Ev(ptr noundef nonnull align 8 dereferenceable(32) %5) #28
  br label %.critedge

.critedge:                                        ; preds = %9, %20
  %21 = getelementptr inbounds i8, ptr %6, i64 16
  %22 = getelementptr inbounds i8, ptr %6, i64 24
  %23 = getelementptr inbounds i8, ptr %6, i64 8
  store i64 0, ptr %23, align 8
  %24 = ptrtoint ptr %3 to i64
  store i64 %24, ptr %6, align 8
  store ptr @"_ZNSt17_Function_handlerIFvRK9DfgVertexEZNK8DfgGraph26dumpDotAllVarConesPrefixedERKNSt7__cxx1112basic_stringIcSt11char_traitsIcESaIcEEEE3$_0E9_M_invokeERKSt9_Any_dataS2_", ptr %22, align 8
  store ptr @"_ZNSt17_Function_handlerIFvRK9DfgVertexEZNK8DfgGraph26dumpDotAllVarConesPrefixedERKNSt7__cxx1112basic_stringIcSt11char_traitsIcESaIcEEEE3$_0E10_M_managerERSt9_Any_dataRKSF_St18_Manager_operation", ptr %21, align 8
  invoke void @_ZNK8DfgGraph13forEachVertexESt8functionIFvRK9DfgVertexEE(ptr noundef nonnull align 8 dereferenceable(104) %0, ptr noundef nonnull %6)
          to label %25 unwind label %36

25:                                               ; preds = %.critedge
  %26 = load ptr, ptr %21, align 8
  %.not.i.i = icmp eq ptr %26, null
  br i1 %.not.i.i, label %_ZNSt8functionIFvRK9DfgVertexEED2Ev.exit, label %27

27:                                               ; preds = %25
  %28 = invoke noundef zeroext i1 %26(ptr noundef nonnull align 8 dereferenceable(16) %6, ptr noundef nonnull align 8 dereferenceable(16) %6, i32 noundef 3)
          to label %_ZNSt8functionIFvRK9DfgVertexEED2Ev.exit unwind label %29

29:                                               ; preds = %27
  %30 = landingpad { ptr, i32 }
          catch ptr null
  %31 = extractvalue { ptr, i32 } %30, 0
  call void @__clang_call_terminate(ptr %31) #27
  unreachable

_ZNSt8functionIFvRK9DfgVertexEED2Ev.exit:         ; preds = %25, %27
  call void @_ZNSt7__cxx1112basic_stringIcSt11char_traitsIcESaIcEED1Ev(ptr noundef nonnull align 8 dereferenceable(32) %3) #28
  ret void

32:                                               ; preds = %_ZStplIcSt11char_traitsIcESaIcEENSt7__cxx1112basic_stringIT_T0_T1_EERKS8_PKS5_.exit15
  %33 = landingpad { ptr, i32 }
          cleanup
  br label %common.resume

34:                                               ; preds = %18
  %35 = landingpad { ptr, i32 }
          cleanup
  call void @_ZNSt7__cxx1112basic_stringIcSt11char_traitsIcESaIcEED1Ev(ptr noundef nonnull align 8 dereferenceable(32) %4) #28
  br label %common.resume

36:                                               ; preds = %.critedge
  %37 = landingpad { ptr, i32 }
          cleanup
  %38 = load ptr, ptr %21, align 8
  %.not.i.i16 = icmp eq ptr %38, null
  br i1 %.not.i.i16, label %common.resume, label %39

39:                                               ; preds = %36
  %40 = invoke noundef zeroext i1 %38(ptr noundef nonnull align 8 dereferenceable(16) %6, ptr noundef nonnull align 8 dereferenceable(16) %6, i32 noundef 3)
          to label %common.resume unwind label %41

41:                                               ; preds = %39
  %42 = landingpad { ptr, i32 }
          catch ptr null
  %43 = extractvalue { ptr, i32 } %42, 0
  call void @__clang_call_terminate(ptr %43) #27
  unreachable
}